target datalayout = "e-m:e-p270:32:32-p271:32:32-p272:64:64-i64:64-i128:128-f80:128-n8:16:32:64-S128"
target triple = "x86_64-pc-linux-gnu"

%struct.ucvector = type { ptr, i64, i64 }

@.str.3 = private unnamed_addr constant [5 x i8] c"IHDR\00", align 1

; Function Attrs: mustprogress nounwind uwtable
define internal noundef ptr @_ZL15lodepng_reallocPvm(ptr noundef %0, i64 noundef %1) #3 {
  %3 = alloca ptr, align 8
  %4 = alloca i64, align 8
  store ptr %0, ptr %3, align 8, !tbaa !44
  store i64 %1, ptr %4, align 8, !tbaa !17
  %5 = load ptr, ptr %3, align 8, !tbaa !44
  %6 = load i64, ptr %4, align 8, !tbaa !17
  %7 = call ptr @realloc(ptr noundef %5, i64 noundef %6) #19
  ret ptr %7
}

; Function Attrs: mustprogress uwtable
define internal noundef i32 @_ZL16ucvector_reserveP8ucvectorm(ptr noundef %0, i64 noundef %1) #0 {
  %3 = alloca i32, align 4
  %4 = alloca ptr, align 8
  %5 = alloca i64, align 8
  %6 = alloca i64, align 8
  %7 = alloca ptr, align 8
  %8 = alloca i32, align 4
  store ptr %0, ptr %4, align 8, !tbaa !65
  store i64 %1, ptr %5, align 8, !tbaa !17
  %9 = load i64, ptr %5, align 8, !tbaa !17
  %10 = load ptr, ptr %4, align 8, !tbaa !65
  %11 = getelementptr inbounds nuw %struct.ucvector, ptr %10, i32 0, i32 2
  %12 = load i64, ptr %11, align 8, !tbaa !64
  %13 = icmp ugt i64 %9, %12
  br i1 %13, label %14, label %40

14:                                               ; preds = %2
  call void @llvm.lifetime.start.p0(i64 8, ptr %6) #17
  %15 = load i64, ptr %5, align 8, !tbaa !17
  %16 = load ptr, ptr %4, align 8, !tbaa !65
  %17 = getelementptr inbounds nuw %struct.ucvector, ptr %16, i32 0, i32 2
  %18 = load i64, ptr %17, align 8, !tbaa !64
  %19 = lshr i64 %18, 1
  %20 = add i64 %15, %19
  store i64 %20, ptr %6, align 8, !tbaa !17
  call void @llvm.lifetime.start.p0(i64 8, ptr %7) #17
  %21 = load ptr, ptr %4, align 8, !tbaa !65
  %22 = getelementptr inbounds nuw %struct.ucvector, ptr %21, i32 0, i32 0
  %23 = load ptr, ptr %22, align 8, !tbaa !61
  %24 = load i64, ptr %6, align 8, !tbaa !17
  %25 = call noundef ptr @_ZL15lodepng_reallocPvm(ptr noundef %23, i64 noundef %24)
  store ptr %25, ptr %7, align 8, !tbaa !44
  %26 = load ptr, ptr %7, align 8, !tbaa !44
  %27 = icmp ne ptr %26, null
  br i1 %27, label %28, label %35

28:                                               ; preds = %14
  %29 = load i64, ptr %6, align 8, !tbaa !17
  %30 = load ptr, ptr %4, align 8, !tbaa !65
  %31 = getelementptr inbounds nuw %struct.ucvector, ptr %30, i32 0, i32 2
  store i64 %29, ptr %31, align 8, !tbaa !64
  %32 = load ptr, ptr %7, align 8, !tbaa !44
  %33 = load ptr, ptr %4, align 8, !tbaa !65
  %34 = getelementptr inbounds nuw %struct.ucvector, ptr %33, i32 0, i32 0
  store ptr %32, ptr %34, align 8, !tbaa !61
  br label %36

35:                                               ; preds = %14
  store i32 0, ptr %3, align 4
  store i32 1, ptr %8, align 4
  br label %37

36:                                               ; preds = %28
  store i32 0, ptr %8, align 4
  br label %37

37:                                               ; preds = %36, %35
  call void @llvm.lifetime.end.p0(i64 8, ptr %7) #17
  call void @llvm.lifetime.end.p0(i64 8, ptr %6) #17
  %38 = load i32, ptr %8, align 4
  switch i32 %38, label %43 [
    i32 0, label %39
    i32 1, label %41
  ]

39:                                               ; preds = %37
  br label %40

40:                                               ; preds = %39, %2
  store i32 1, ptr %3, align 4
  br label %41

41:                                               ; preds = %40, %37
  %42 = load i32, ptr %3, align 4
  ret i32 %42

43:                                               ; preds = %37
  unreachable
}

; Function Attrs: mustprogress nounwind uwtable
define internal void @_ZL14lodepng_memcpyPvPKvm(ptr noalias noundef %0, ptr noalias noundef %1, i64 noundef %2) #3 {
  %4 = alloca ptr, align 8
  %5 = alloca ptr, align 8
  %6 = alloca i64, align 8
  %7 = alloca i64, align 8
  store ptr %0, ptr %4, align 8, !tbaa !44
  store ptr %1, ptr %5, align 8, !tbaa !44
  store i64 %2, ptr %6, align 8, !tbaa !17
  call void @llvm.lifetime.start.p0(i64 8, ptr %7) #17
  store i64 0, ptr %7, align 8, !tbaa !17
  br label %8

8:                                                ; preds = %20, %3
  %9 = load i64, ptr %7, align 8, !tbaa !17
  %10 = load i64, ptr %6, align 8, !tbaa !17
  %11 = icmp ult i64 %9, %10
  br i1 %11, label %12, label %23

12:                                               ; preds = %8
  %13 = load ptr, ptr %5, align 8, !tbaa !44
  %14 = load i64, ptr %7, align 8, !tbaa !17
  %15 = getelementptr inbounds nuw i8, ptr %13, i64 %14
  %16 = load i8, ptr %15, align 1, !tbaa !45
  %17 = load ptr, ptr %4, align 8, !tbaa !44
  %18 = load i64, ptr %7, align 8, !tbaa !17
  %19 = getelementptr inbounds nuw i8, ptr %17, i64 %18
  store i8 %16, ptr %19, align 1, !tbaa !45
  br label %20

20:                                               ; preds = %12
  %21 = load i64, ptr %7, align 8, !tbaa !17
  %22 = add i64 %21, 1
  store i64 %22, ptr %7, align 8, !tbaa !17
  br label %8, !llvm.loop !112

23:                                               ; preds = %8
  call void @llvm.lifetime.end.p0(i64 8, ptr %7) #17
  ret void
}

; Function Attrs: mustprogress uwtable
define internal noundef i32 @_ZL15ucvector_resizeP8ucvectorm(ptr noundef %0, i64 noundef %1) #0 {
  %3 = alloca ptr, align 8
  %4 = alloca i64, align 8
  store ptr %0, ptr %3, align 8, !tbaa !65
  store i64 %1, ptr %4, align 8, !tbaa !17
  %5 = load i64, ptr %4, align 8, !tbaa !17
  %6 = load ptr, ptr %3, align 8, !tbaa !65
  %7 = getelementptr inbounds nuw %struct.ucvector, ptr %6, i32 0, i32 1
  store i64 %5, ptr %7, align 8, !tbaa !63
  %8 = load ptr, ptr %3, align 8, !tbaa !65
  %9 = load i64, ptr %4, align 8, !tbaa !17
  %10 = call noundef i32 @_ZL16ucvector_reserveP8ucvectorm(ptr noundef %8, i64 noundef %9)
  ret i32 %10
}

; Function Attrs: mustprogress nounwind uwtable
define internal noundef i32 @_ZL14lodepng_addoflmmPm(i64 noundef %0, i64 noundef %1, ptr noundef %2) #3 {
  %4 = alloca i64, align 8
  %5 = alloca i64, align 8
  %6 = alloca ptr, align 8
  store i64 %0, ptr %4, align 8, !tbaa !17
  store i64 %1, ptr %5, align 8, !tbaa !17
  store ptr %2, ptr %6, align 8, !tbaa !9
  %7 = load i64, ptr %4, align 8, !tbaa !17
  %8 = load i64, ptr %5, align 8, !tbaa !17
  %9 = add i64 %7, %8
  %10 = load ptr, ptr %6, align 8, !tbaa !9
  store i64 %9, ptr %10, align 8, !tbaa !17
  %11 = load ptr, ptr %6, align 8, !tbaa !9
  %12 = load i64, ptr %11, align 8, !tbaa !17
  %13 = load i64, ptr %4, align 8, !tbaa !17
  %14 = icmp ult i64 %12, %13
  %15 = zext i1 %14 to i32
  ret i32 %15
}

; Function Attrs: mustprogress nounwind uwtable
define internal void @_ZL19lodepng_set32bitIntPhj(ptr noundef %0, i32 noundef %1) #3 {
  %3 = alloca ptr, align 8
  %4 = alloca i32, align 4
  store ptr %0, ptr %3, align 8, !tbaa !11
  store i32 %1, ptr %4, align 4, !tbaa !15
  %5 = load i32, ptr %4, align 4, !tbaa !15
  %6 = lshr i32 %5, 24
  %7 = and i32 %6, 255
  %8 = trunc i32 %7 to i8
  %9 = load ptr, ptr %3, align 8, !tbaa !11
  %10 = getelementptr inbounds i8, ptr %9, i64 0
  store i8 %8, ptr %10, align 1, !tbaa !45
  %11 = load i32, ptr %4, align 4, !tbaa !15
  %12 = lshr i32 %11, 16
  %13 = and i32 %12, 255
  %14 = trunc i32 %13 to i8
  %15 = load ptr, ptr %3, align 8, !tbaa !11
  %16 = getelementptr inbounds i8, ptr %15, i64 1
  store i8 %14, ptr %16, align 1, !tbaa !45
  %17 = load i32, ptr %4, align 4, !tbaa !15
  %18 = lshr i32 %17, 8
  %19 = and i32 %18, 255
  %20 = trunc i32 %19 to i8
  %21 = load ptr, ptr %3, align 8, !tbaa !11
  %22 = getelementptr inbounds i8, ptr %21, i64 2
  store i8 %20, ptr %22, align 1, !tbaa !45
  %23 = load i32, ptr %4, align 4, !tbaa !15
  %24 = and i32 %23, 255
  %25 = trunc i32 %24 to i8
  %26 = load ptr, ptr %3, align 8, !tbaa !11
  %27 = getelementptr inbounds i8, ptr %26, i64 3
  store i8 %25, ptr %27, align 1, !tbaa !45
  ret void
}

; Function Attrs: mustprogress uwtable
define internal noundef i32 @_ZL18lodepng_chunk_initPPhP8ucvectormPKc(ptr noundef %0, ptr noundef %1, i64 noundef %2, ptr noundef %3) #0 {
  %5 = alloca i32, align 4
  %6 = alloca ptr, align 8
  %7 = alloca ptr, align 8
  %8 = alloca i64, align 8
  %9 = alloca ptr, align 8
  %10 = alloca i64, align 8
  %11 = alloca i32, align 4
  store ptr %0, ptr %6, align 8, !tbaa !3
  store ptr %1, ptr %7, align 8, !tbaa !65
  store i64 %2, ptr %8, align 8, !tbaa !17
  store ptr %3, ptr %9, align 8, !tbaa !11
  call void @llvm.lifetime.start.p0(i64 8, ptr %10) #17
  %12 = load ptr, ptr %7, align 8, !tbaa !65
  %13 = getelementptr inbounds nuw %struct.ucvector, ptr %12, i32 0, i32 1
  %14 = load i64, ptr %13, align 8, !tbaa !63
  store i64 %14, ptr %10, align 8, !tbaa !17
  %15 = load i64, ptr %10, align 8, !tbaa !17
  %16 = load i64, ptr %8, align 8, !tbaa !17
  %17 = call noundef i32 @_ZL14lodepng_addoflmmPm(i64 noundef %15, i64 noundef %16, ptr noundef %10)
  %18 = icmp ne i32 %17, 0
  br i1 %18, label %19, label %20

19:                                               ; preds = %4
  store i32 77, ptr %5, align 4
  store i32 1, ptr %11, align 4
  br label %50

20:                                               ; preds = %4
  %21 = load i64, ptr %10, align 8, !tbaa !17
  %22 = call noundef i32 @_ZL14lodepng_addoflmmPm(i64 noundef %21, i64 noundef 12, ptr noundef %10)
  %23 = icmp ne i32 %22, 0
  br i1 %23, label %24, label %25

24:                                               ; preds = %20
  store i32 77, ptr %5, align 4
  store i32 1, ptr %11, align 4
  br label %50

25:                                               ; preds = %20
  %26 = load ptr, ptr %7, align 8, !tbaa !65
  %27 = load i64, ptr %10, align 8, !tbaa !17
  %28 = call noundef i32 @_ZL15ucvector_resizeP8ucvectorm(ptr noundef %26, i64 noundef %27)
  %29 = icmp ne i32 %28, 0
  br i1 %29, label %31, label %30

30:                                               ; preds = %25
  store i32 83, ptr %5, align 4
  store i32 1, ptr %11, align 4
  br label %50

31:                                               ; preds = %25
  %32 = load ptr, ptr %7, align 8, !tbaa !65
  %33 = getelementptr inbounds nuw %struct.ucvector, ptr %32, i32 0, i32 0
  %34 = load ptr, ptr %33, align 8, !tbaa !61
  %35 = load i64, ptr %10, align 8, !tbaa !17
  %36 = getelementptr inbounds nuw i8, ptr %34, i64 %35
  %37 = load i64, ptr %8, align 8, !tbaa !17
  %38 = sub i64 0, %37
  %39 = getelementptr inbounds i8, ptr %36, i64 %38
  %40 = getelementptr inbounds i8, ptr %39, i64 -12
  %41 = load ptr, ptr %6, align 8, !tbaa !3
  store ptr %40, ptr %41, align 8, !tbaa !11
  %42 = load ptr, ptr %6, align 8, !tbaa !3
  %43 = load ptr, ptr %42, align 8, !tbaa !11
  %44 = load i64, ptr %8, align 8, !tbaa !17
  %45 = trunc i64 %44 to i32
  call void @_ZL19lodepng_set32bitIntPhj(ptr noundef %43, i32 noundef %45)
  %46 = load ptr, ptr %6, align 8, !tbaa !3
  %47 = load ptr, ptr %46, align 8, !tbaa !11
  %48 = getelementptr inbounds i8, ptr %47, i64 4
  %49 = load ptr, ptr %9, align 8, !tbaa !11
  call void @_ZL14lodepng_memcpyPvPKvm(ptr noundef %48, ptr noundef %49, i64 noundef 4)
  store i32 0, ptr %5, align 4
  store i32 1, ptr %11, align 4
  br label %50

50:                                               ; preds = %31, %30, %24, %19
  call void @llvm.lifetime.end.p0(i64 8, ptr %10) #17
  %51 = load i32, ptr %5, align 4
  ret i32 %51
}

; Function Attrs: mustprogress uwtable
define internal noundef i32 @_ZL13addChunk_IHDRP8ucvectorjj16LodePNGColorTypejj(ptr noundef %0, i32 noundef %1, i32 noundef %2, i32 noundef %3, i32 noundef %4, i32 noundef %5) #0 {
  %7 = alloca i32, align 4
  %8 = alloca ptr, align 8
  %9 = alloca i32, align 4
  %10 = alloca i32, align 4
  %11 = alloca i32, align 4
  %12 = alloca i32, align 4
  %13 = alloca i32, align 4
  %14 = alloca ptr, align 8
  %15 = alloca ptr, align 8
  %16 = alloca i32, align 4
  %17 = alloca i32, align 4
  store ptr %0, ptr %8, align 8, !tbaa !65
  store i32 %1, ptr %9, align 4, !tbaa !15
  store i32 %2, ptr %10, align 4, !tbaa !15
  store i32 %3, ptr %11, align 4, !tbaa !113
  store i32 %4, ptr %12, align 4, !tbaa !15
  store i32 %5, ptr %13, align 4, !tbaa !15
  call void @llvm.lifetime.start.p0(i64 8, ptr %14) #17
  call void @llvm.lifetime.start.p0(i64 8, ptr %15) #17
  call void @llvm.lifetime.start.p0(i64 4, ptr %16) #17
  %18 = load ptr, ptr %8, align 8, !tbaa !65
  %19 = call noundef i32 @_ZL18lodepng_chunk_initPPhP8ucvectormPKc(ptr noundef %14, ptr noundef %18, i64 noundef 13, ptr noundef @.str.3)
  store i32 %19, ptr %16, align 4, !tbaa !15
  %20 = load i32, ptr %16, align 4, !tbaa !15
  %21 = icmp ne i32 %20, 0
  br i1 %21, label %22, label %24

22:                                               ; preds = %6
  %23 = load i32, ptr %16, align 4, !tbaa !15
  store i32 %23, ptr %7, align 4
  store i32 1, ptr %17, align 4
  br label %25

24:                                               ; preds = %6
  store i32 0, ptr %17, align 4
  br label %25

25:                                               ; preds = %24, %22
  call void @llvm.lifetime.end.p0(i64 4, ptr %16) #17
  %26 = load i32, ptr %17, align 4
  switch i32 %26, label %53 [
    i32 0, label %27
  ]

27:                                               ; preds = %25
  %28 = load ptr, ptr %14, align 8, !tbaa !11
  %29 = getelementptr inbounds i8, ptr %28, i64 8
  store ptr %29, ptr %15, align 8, !tbaa !11
  %30 = load ptr, ptr %15, align 8, !tbaa !11
  %31 = getelementptr inbounds i8, ptr %30, i64 0
  %32 = load i32, ptr %9, align 4, !tbaa !15
  call void @_ZL19lodepng_set32bitIntPhj(ptr noundef %31, i32 noundef %32)
  %33 = load ptr, ptr %15, align 8, !tbaa !11
  %34 = getelementptr inbounds i8, ptr %33, i64 4
  %35 = load i32, ptr %10, align 4, !tbaa !15
  call void @_ZL19lodepng_set32bitIntPhj(ptr noundef %34, i32 noundef %35)
  %36 = load i32, ptr %12, align 4, !tbaa !15
  %37 = trunc i32 %36 to i8
  %38 = load ptr, ptr %15, align 8, !tbaa !11
  %39 = getelementptr inbounds i8, ptr %38, i64 8
  store i8 %37, ptr %39, align 1, !tbaa !45
  %40 = load i32, ptr %11, align 4, !tbaa !113
  %41 = trunc i32 %40 to i8
  %42 = load ptr, ptr %15, align 8, !tbaa !11
  %43 = getelementptr inbounds i8, ptr %42, i64 9
  store i8 %41, ptr %43, align 1, !tbaa !45
  %44 = load ptr, ptr %15, align 8, !tbaa !11
  %45 = getelementptr inbounds i8, ptr %44, i64 10
  store i8 0, ptr %45, align 1, !tbaa !45
  %46 = load ptr, ptr %15, align 8, !tbaa !11
  %47 = getelementptr inbounds i8, ptr %46, i64 11
  store i8 0, ptr %47, align 1, !tbaa !45
  %48 = load i32, ptr %13, align 4, !tbaa !15
  %49 = trunc i32 %48 to i8
  %50 = load ptr, ptr %15, align 8, !tbaa !11
  %51 = getelementptr inbounds i8, ptr %50, i64 12
  store i8 %49, ptr %51, align 1, !tbaa !45
  %52 = load ptr, ptr %14, align 8, !tbaa !11
  call void @_Z26lodepng_chunk_generate_crcPh(ptr noundef %52)
  store i32 0, ptr %7, align 4
  store i32 1, ptr %17, align 4
  br label %53

53:                                               ; preds = %27, %25
  call void @llvm.lifetime.end.p0(i64 8, ptr %15) #17
  call void @llvm.lifetime.end.p0(i64 8, ptr %14) #17
  %54 = load i32, ptr %7, align 4
  ret i32 %54
}