; Function Attrs: mustprogress nounwind uwtable
define internal fastcc noundef range(i32 0, 84) i32 @_ZL13addChunk_IHDRP8ucvectorjj16LodePNGColorTypejj(ptr noundef nonnull captures(none) %0, i32 noundef %1, i32 noundef %2, i32 noundef %3, i32 noundef %4, i32 noundef %5) unnamed_addr #3 {
  %7 = getelementptr inbounds nuw i8, ptr %0, i64 8
  %8 = load i64, ptr %7, align 8, !tbaa !58
  %.not.i = icmp ugt i64 %8, -14
  br i1 %.not.i, label %_ZL18lodepng_chunk_initPPhP8ucvectormPKc.exit.thread, label %9

9:                                                ; preds = %6
  %10 = add i64 %8, 25
  %11 = icmp ult i64 %8, -25
  br i1 %11, label %12, label %_ZL18lodepng_chunk_initPPhP8ucvectormPKc.exit.thread

12:                                               ; preds = %9
  store i64 %10, ptr %7, align 8, !tbaa !58
  %13 = getelementptr inbounds nuw i8, ptr %0, i64 16
  %14 = load i64, ptr %13, align 8, !tbaa !59
  %15 = icmp ugt i64 %10, %14
  %.pre.i = load ptr, ptr %0, align 8, !tbaa !53
  br i1 %15, label %16, label %20

16:                                               ; preds = %12
  %17 = lshr i64 %14, 1
  %18 = add i64 %17, %10
  %19 = tail call noalias noundef ptr @realloc(ptr noundef %.pre.i, i64 noundef %18) #29
  %.not.i.i.i = icmp eq ptr %19, null
  br i1 %.not.i.i.i, label %_ZL18lodepng_chunk_initPPhP8ucvectormPKc.exit.thread, label %.thread.i.i.i

.thread.i.i.i:                                    ; preds = %16
  store i64 %18, ptr %13, align 8, !tbaa !59
  store ptr %19, ptr %0, align 8, !tbaa !53
  br label %20

20:                                               ; preds = %.thread.i.i.i, %12
  %21 = phi ptr [ %19, %.thread.i.i.i ], [ %.pre.i, %12 ]
  %22 = getelementptr inbounds nuw i8, ptr %21, i64 %10
  %23 = getelementptr inbounds i8, ptr %21, i64 %8
  store i8 0, ptr %23, align 1, !tbaa !18
  %24 = getelementptr inbounds i8, ptr %22, i64 -24
  store i8 0, ptr %24, align 1, !tbaa !18
  %25 = getelementptr inbounds i8, ptr %22, i64 -23
  store i8 0, ptr %25, align 1, !tbaa !18
  %26 = getelementptr inbounds i8, ptr %22, i64 -22
  store i8 13, ptr %26, align 1, !tbaa !18
  %27 = getelementptr inbounds nuw i8, ptr %23, i64 4
  store i32 1380206665, ptr %27, align 1, !tbaa !18, !alias.scope !586
  %28 = getelementptr inbounds nuw i8, ptr %23, i64 8
  %29 = lshr i32 %1, 24
  %30 = trunc nuw i32 %29 to i8
  store i8 %30, ptr %28, align 1, !tbaa !18
  %31 = lshr i32 %1, 16
  %32 = trunc i32 %31 to i8
  %33 = getelementptr inbounds nuw i8, ptr %23, i64 9
  store i8 %32, ptr %33, align 1, !tbaa !18
  %34 = lshr i32 %1, 8
  %35 = trunc i32 %34 to i8
  %36 = getelementptr inbounds nuw i8, ptr %23, i64 10
  store i8 %35, ptr %36, align 1, !tbaa !18
  %37 = trunc i32 %1 to i8
  %38 = getelementptr inbounds nuw i8, ptr %23, i64 11
  store i8 %37, ptr %38, align 1, !tbaa !18
  %39 = getelementptr inbounds nuw i8, ptr %23, i64 12
  %40 = lshr i32 %2, 24
  %41 = trunc nuw i32 %40 to i8
  store i8 %41, ptr %39, align 1, !tbaa !18
  %42 = lshr i32 %2, 16
  %43 = trunc i32 %42 to i8
  %44 = getelementptr inbounds nuw i8, ptr %23, i64 13
  store i8 %43, ptr %44, align 1, !tbaa !18
  %45 = lshr i32 %2, 8
  %46 = trunc i32 %45 to i8
  %47 = getelementptr inbounds nuw i8, ptr %23, i64 14
  store i8 %46, ptr %47, align 1, !tbaa !18
  %48 = trunc i32 %2 to i8
  %49 = getelementptr inbounds nuw i8, ptr %23, i64 15
  store i8 %48, ptr %49, align 1, !tbaa !18
  %50 = trunc i32 %4 to i8
  %51 = getelementptr inbounds nuw i8, ptr %23, i64 16
  store i8 %50, ptr %51, align 1, !tbaa !18
  %52 = trunc i32 %3 to i8
  %53 = getelementptr inbounds nuw i8, ptr %23, i64 17
  store i8 %52, ptr %53, align 1, !tbaa !18
  %54 = getelementptr inbounds nuw i8, ptr %23, i64 18
  store i8 0, ptr %54, align 1, !tbaa !18
  %55 = getelementptr inbounds nuw i8, ptr %23, i64 19
  store i8 0, ptr %55, align 1, !tbaa !18
  %56 = trunc i32 %5 to i8
  %57 = getelementptr inbounds nuw i8, ptr %23, i64 20
  store i8 %56, ptr %57, align 1, !tbaa !18
  tail call void @_Z26lodepng_chunk_generate_crcPh(ptr noundef nonnull %23)
  br label %_ZL18lodepng_chunk_initPPhP8ucvectormPKc.exit.thread

_ZL18lodepng_chunk_initPPhP8ucvectormPKc.exit.thread: ; preds = %16, %9, %6, %20
  %.1 = phi i32 [ 0, %20 ], [ 83, %16 ], [ 77, %9 ], [ 77, %6 ]
  ret i32 %.1
}